(lp0
(S'cppflags'
p1
ccopy_reg
_reconstructor
p2
(cino.utils
SpaceList
p3
c__builtin__
list
p4
(lp5
S'-mmcu=atmega328p'
p6
aS'-DF_CPU=16000000L'
p7
aS'-DARDUINO=106'
p8
aS'-I/Applications/Arduino.app/Contents/Resources/Java/hardware/arduino/cores/arduino'
p9
aS'-ffunction-sections'
p10
aS'-fdata-sections'
p11
aS'-g'
p12
aS'-Os'
p13
aS'-w'
p14
aS'-I/Applications/Arduino.app/Contents/Resources/Java/hardware/arduino/variants/standard'
p15
aS'-Ilib/EBXLib'
p16
aS'-I/Applications/Arduino.app/Contents/Resources/Java/libraries/EEPROM'
p17
aS'-Ilib/EEPROMAnything'
p18
aS'-I/Applications/Arduino.app/Contents/Resources/Java/libraries/LiquidCrystal'
p19
aS'-Ilib/DallasTemperature'
p20
aS'-Ilib/OneWire'
p21
aS'-I/Applications/Arduino.app/Contents/Resources/Java/hardware/arduino/cores/arduino'
p22
aS'-I/Applications/Arduino.app/Contents/Resources/Java/hardware/arduino/cores/arduino/avr-libc'
p23
atp24
Rp25
tp26
a(S'cc'
p27
S'/Applications/Arduino.app/Contents/Resources/Java/hardware/tools/avr/bin/avr-gcc'
p28
tp29
a(S'arduino_libraries_dir'
p30
S'/Applications/Arduino.app/Contents/Resources/Java/libraries'
p31
tp32
a(S'avrdude'
p33
S'/Applications/Arduino.app/Contents/Resources/Java/hardware/tools/avr/bin/avrdude'
p34
tp35
a(S'ar'
p36
S'/Applications/Arduino.app/Contents/Resources/Java/hardware/tools/avr/bin/avr-ar'
p37
tp38
a(S'names'
p39
(dp40
S'cpp'
p41
S'%s.cpp'
p42
sS'obj'
p43
S'%s.o'
p44
sS'deps'
p45
S'%s.d'
p46
sS'lib'
p47
S'lib%s.a'
p48
stp49
a(S'ldflags'
p50
g2
(g3
g4
(lp51
g6
aS'-Wl,-Os'
p52
aS'-Wl,--gc-sections'
p53
atp54
Rp55
tp56
a(S'arduino_lib_version'
p57
g2
(cino.environment
Version
p58
c__builtin__
tuple
p59
(I1
I0
I6
tp60
tp61
Rp62
tp63
a(S'objcopy'
p64
S'/Applications/Arduino.app/Contents/Resources/Java/hardware/tools/avr/bin/avr-objcopy'
p65
tp66
a(S'board_models'
p67
cino.environment
BoardModels
p68
((lp69
(lp70
S'uno'
p71
a(dp72
S'bootloader'
p73
(dp74
S'extended_fuses'
p75
S'0x05'
p76
sS'high_fuses'
p77
S'0xde'
p78
sS'low_fuses'
p79
S'0xff'
p80
sS'lock_bits'
p81
S'0x0F'
p82
sS'file'
p83
S'optiboot_atmega328.hex'
p84
sS'path'
p85
S'optiboot'
p86
sS'unlock_bits'
p87
S'0x3F'
p88
ssS'build'
p89
(dp90
S'core'
p91
S'arduino'
p92
sS'mcu'
p93
S'atmega328p'
p94
sS'f_cpu'
p95
S'16000000L'
p96
sS'variant'
p97
S'standard'
p98
ssS'name'
p99
S'Arduino Uno'
p100
sS'upload'
p101
(dp102
S'speed'
p103
S'115200'
p104
sS'maximum_size'
p105
S'32256'
p106
sS'protocol'
p107
S'arduino'
p108
ssaa(lp109
S'atmega328'
p110
a(dp111
S'bootloader'
p112
(dp113
S'extended_fuses'
p114
S'0x05'
p115
sS'high_fuses'
p116
S'0xDA'
p117
sS'low_fuses'
p118
S'0xFF'
p119
sS'lock_bits'
p120
S'0x0F'
p121
sS'file'
p122
S'ATmegaBOOT_168_atmega328.hex'
p123
sS'path'
p124
S'atmega'
p125
sS'unlock_bits'
p126
S'0x3F'
p127
ssS'build'
p128
(dp129
S'core'
p130
S'arduino'
p131
sS'mcu'
p132
S'atmega328p'
p133
sS'f_cpu'
p134
S'16000000L'
p135
sS'variant'
p136
S'standard'
p137
ssS'name'
p138
S'Arduino Duemilanove w/ ATmega328'
p139
sS'upload'
p140
(dp141
S'speed'
p142
S'57600'
p143
sS'maximum_size'
p144
S'30720'
p145
sS'protocol'
p146
S'arduino'
p147
ssaa(lp148
S'diecimila'
p149
a(dp150
S'bootloader'
p151
(dp152
S'extended_fuses'
p153
S'0x00'
p154
sS'high_fuses'
p155
S'0xdd'
p156
sS'low_fuses'
p157
S'0xff'
p158
sS'lock_bits'
p159
S'0x0F'
p160
sS'file'
p161
S'ATmegaBOOT_168_diecimila.hex'
p162
sS'path'
p163
S'atmega'
p164
sS'unlock_bits'
p165
S'0x3F'
p166
ssS'build'
p167
(dp168
S'core'
p169
S'arduino'
p170
sS'mcu'
p171
S'atmega168'
p172
sS'f_cpu'
p173
S'16000000L'
p174
sS'variant'
p175
S'standard'
p176
ssS'name'
p177
S'Arduino Diecimila or Duemilanove w/ ATmega168'
p178
sS'upload'
p179
(dp180
S'speed'
p181
S'19200'
p182
sS'maximum_size'
p183
S'14336'
p184
sS'protocol'
p185
S'arduino'
p186
ssaa(lp187
S'nano328'
p188
a(dp189
S'bootloader'
p190
(dp191
S'extended_fuses'
p192
S'0x05'
p193
sS'high_fuses'
p194
S'0xDA'
p195
sS'low_fuses'
p196
S'0xFF'
p197
sS'lock_bits'
p198
S'0x0F'
p199
sS'file'
p200
S'ATmegaBOOT_168_atmega328.hex'
p201
sS'path'
p202
S'atmega'
p203
sS'unlock_bits'
p204
S'0x3F'
p205
ssS'build'
p206
(dp207
S'core'
p208
S'arduino'
p209
sS'mcu'
p210
S'atmega328p'
p211
sS'f_cpu'
p212
S'16000000L'
p213
sS'variant'
p214
S'eightanaloginputs'
p215
ssS'name'
p216
S'Arduino Nano w/ ATmega328'
p217
sS'upload'
p218
(dp219
S'speed'
p220
S'57600'
p221
sS'maximum_size'
p222
S'30720'
p223
sS'protocol'
p224
S'arduino'
p225
ssaa(lp226
S'nano'
p227
a(dp228
S'bootloader'
p229
(dp230
S'extended_fuses'
p231
S'0x00'
p232
sS'high_fuses'
p233
S'0xdd'
p234
sS'low_fuses'
p235
S'0xff'
p236
sS'lock_bits'
p237
S'0x0F'
p238
sS'file'
p239
S'ATmegaBOOT_168_diecimila.hex'
p240
sS'path'
p241
S'atmega'
p242
sS'unlock_bits'
p243
S'0x3F'
p244
ssS'build'
p245
(dp246
S'core'
p247
S'arduino'
p248
sS'mcu'
p249
S'atmega168'
p250
sS'f_cpu'
p251
S'16000000L'
p252
sS'variant'
p253
S'eightanaloginputs'
p254
ssS'name'
p255
S'Arduino Nano w/ ATmega168'
p256
sS'upload'
p257
(dp258
S'speed'
p259
S'19200'
p260
sS'maximum_size'
p261
S'14336'
p262
sS'protocol'
p263
S'arduino'
p264
ssaa(lp265
S'mega2560'
p266
a(dp267
S'bootloader'
p268
(dp269
S'extended_fuses'
p270
S'0xFD'
p271
sS'high_fuses'
p272
S'0xD8'
p273
sS'low_fuses'
p274
S'0xFF'
p275
sS'lock_bits'
p276
S'0x0F'
p277
sS'file'
p278
S'stk500boot_v2_mega2560.hex'
p279
sS'path'
p280
S'stk500v2'
p281
sS'unlock_bits'
p282
S'0x3F'
p283
ssS'build'
p284
(dp285
S'core'
p286
S'arduino'
p287
sS'mcu'
p288
S'atmega2560'
p289
sS'f_cpu'
p290
S'16000000L'
p291
sS'variant'
p292
S'mega'
p293
ssS'name'
p294
S'Arduino Mega 2560 or Mega ADK'
p295
sS'upload'
p296
(dp297
S'speed'
p298
S'115200'
p299
sS'maximum_size'
p300
S'258048'
p301
sS'protocol'
p302
S'wiring'
p303
ssaa(lp304
S'mega'
p305
a(dp306
S'bootloader'
p307
(dp308
S'extended_fuses'
p309
S'0xF5'
p310
sS'high_fuses'
p311
S'0xDA'
p312
sS'low_fuses'
p313
S'0xFF'
p314
sS'lock_bits'
p315
S'0x0F'
p316
sS'file'
p317
S'ATmegaBOOT_168_atmega1280.hex'
p318
sS'path'
p319
S'atmega'
p320
sS'unlock_bits'
p321
S'0x3F'
p322
ssS'build'
p323
(dp324
S'core'
p325
S'arduino'
p326
sS'mcu'
p327
S'atmega1280'
p328
sS'f_cpu'
p329
S'16000000L'
p330
sS'variant'
p331
S'mega'
p332
ssS'name'
p333
S'Arduino Mega (ATmega1280)'
p334
sS'upload'
p335
(dp336
S'speed'
p337
S'57600'
p338
sS'maximum_size'
p339
S'126976'
p340
sS'protocol'
p341
S'arduino'
p342
ssaa(lp343
S'leonardo'
p344
a(dp345
S'bootloader'
p346
(dp347
S'extended_fuses'
p348
S'0xcb'
p349
sS'high_fuses'
p350
S'0xd8'
p351
sS'low_fuses'
p352
S'0xff'
p353
sS'lock_bits'
p354
S'0x2F'
p355
sS'file'
p356
S'Caterina-Leonardo.hex'
p357
sS'path'
p358
S'caterina'
p359
sS'unlock_bits'
p360
S'0x3F'
p361
ssS'build'
p362
(dp363
S'core'
p364
S'arduino'
p365
sS'f_cpu'
p366
S'16000000L'
p367
sS'vid'
p368
S'0x2341'
p369
sS'pid'
p370
S'0x8036'
p371
sS'variant'
p372
S'leonardo'
p373
sS'mcu'
p374
S'atmega32u4'
p375
ssS'name'
p376
S'Arduino Leonardo'
p377
sS'upload'
p378
(dp379
S'speed'
p380
S'57600'
p381
sS'maximum_size'
p382
S'28672'
p383
sS'protocol'
p384
S'avr109'
p385
sS'disable_flushing'
p386
S'true'
p387
ssaa(lp388
S'esplora'
p389
a(dp390
S'bootloader'
p391
(dp392
S'extended_fuses'
p393
S'0xcb'
p394
sS'high_fuses'
p395
S'0xd8'
p396
sS'low_fuses'
p397
S'0xff'
p398
sS'lock_bits'
p399
S'0x2F'
p400
sS'file'
p401
S'Caterina-Esplora.hex'
p402
sS'path'
p403
S'caterina'
p404
sS'unlock_bits'
p405
S'0x3F'
p406
ssS'build'
p407
(dp408
S'core'
p409
S'arduino'
p410
sS'f_cpu'
p411
S'16000000L'
p412
sS'vid'
p413
S'0x2341'
p414
sS'pid'
p415
S'0x803C'
p416
sS'variant'
p417
S'leonardo'
p418
sS'mcu'
p419
S'atmega32u4'
p420
ssS'name'
p421
S'Arduino Esplora'
p422
sS'upload'
p423
(dp424
S'speed'
p425
S'57600'
p426
sS'maximum_size'
p427
S'28672'
p428
sS'protocol'
p429
S'avr109'
p430
sS'disable_flushing'
p431
S'true'
p432
ssaa(lp433
S'micro'
p434
a(dp435
S'bootloader'
p436
(dp437
S'extended_fuses'
p438
S'0xcb'
p439
sS'high_fuses'
p440
S'0xd8'
p441
sS'low_fuses'
p442
S'0xff'
p443
sS'lock_bits'
p444
S'0x2F'
p445
sS'file'
p446
S'Caterina-Micro.hex'
p447
sS'path'
p448
S'caterina'
p449
sS'unlock_bits'
p450
S'0x3F'
p451
ssS'build'
p452
(dp453
S'core'
p454
S'arduino'
p455
sS'f_cpu'
p456
S'16000000L'
p457
sS'vid'
p458
S'0x2341'
p459
sS'pid'
p460
S'0x8037'
p461
sS'variant'
p462
S'micro'
p463
sS'mcu'
p464
S'atmega32u4'
p465
ssS'name'
p466
S'Arduino Micro'
p467
sS'upload'
p468
(dp469
S'speed'
p470
S'57600'
p471
sS'maximum_size'
p472
S'28672'
p473
sS'protocol'
p474
S'avr109'
p475
sS'disable_flushing'
p476
S'true'
p477
ssaa(lp478
S'mini328'
p479
a(dp480
S'bootloader'
p481
(dp482
S'extended_fuses'
p483
S'0x05'
p484
sS'high_fuses'
p485
S'0xd8'
p486
sS'low_fuses'
p487
S'0xff'
p488
sS'lock_bits'
p489
S'0x0F'
p490
sS'file'
p491
S'optiboot_atmega328-Mini.hex'
p492
sS'path'
p493
S'optiboot'
p494
sS'unlock_bits'
p495
S'0x3F'
p496
ssS'build'
p497
(dp498
S'core'
p499
S'arduino'
p500
sS'mcu'
p501
S'atmega328p'
p502
sS'f_cpu'
p503
S'16000000L'
p504
sS'variant'
p505
S'eightanaloginputs'
p506
ssS'name'
p507
S'Arduino Mini w/ ATmega328'
p508
sS'upload'
p509
(dp510
S'speed'
p511
S'115200'
p512
sS'maximum_size'
p513
S'28672'
p514
sS'protocol'
p515
S'arduino'
p516
ssaa(lp517
S'mini'
p518
a(dp519
S'bootloader'
p520
(dp521
S'extended_fuses'
p522
S'0x00'
p523
sS'high_fuses'
p524
S'0xdd'
p525
sS'low_fuses'
p526
S'0xff'
p527
sS'lock_bits'
p528
S'0x0F'
p529
sS'file'
p530
S'ATmegaBOOT_168_ng.hex'
p531
sS'path'
p532
S'atmega'
p533
sS'unlock_bits'
p534
S'0x3F'
p535
ssS'build'
p536
(dp537
S'core'
p538
S'arduino'
p539
sS'mcu'
p540
S'atmega168'
p541
sS'f_cpu'
p542
S'16000000L'
p543
sS'variant'
p544
S'eightanaloginputs'
p545
ssS'name'
p546
S'Arduino Mini w/ ATmega168'
p547
sS'upload'
p548
(dp549
S'speed'
p550
S'19200'
p551
sS'maximum_size'
p552
S'14336'
p553
sS'protocol'
p554
S'arduino'
p555
ssaa(lp556
S'ethernet'
p557
a(dp558
S'bootloader'
p559
(dp560
S'extended_fuses'
p561
S'0x05'
p562
sS'high_fuses'
p563
S'0xde'
p564
sS'low_fuses'
p565
S'0xff'
p566
sS'lock_bits'
p567
S'0x0F'
p568
sS'file'
p569
S'optiboot_atmega328.hex'
p570
sS'path'
p571
S'optiboot'
p572
sS'unlock_bits'
p573
S'0x3F'
p574
ssS'build'
p575
(dp576
S'f_cpu'
p577
S'16000000L'
p578
sS'mcu'
p579
S'atmega328p'
p580
sS'variant'
p581
S'ethernet'
p582
sS'core'
p583
S'arduino'
p584
ssS'name'
p585
S'Arduino Ethernet'
p586
sS'upload'
p587
(dp588
S'speed'
p589
S'115200'
p590
sS'maximum_size'
p591
S'32256'
p592
sS'protocol'
p593
S'arduino'
p594
ssaa(lp595
S'fio'
p596
a(dp597
S'bootloader'
p598
(dp599
S'extended_fuses'
p600
S'0x05'
p601
sS'high_fuses'
p602
S'0xDA'
p603
sS'low_fuses'
p604
S'0xFF'
p605
sS'lock_bits'
p606
S'0x0F'
p607
sS'file'
p608
S'ATmegaBOOT_168_atmega328_pro_8MHz.hex'
p609
sS'path'
p610
S'arduino:atmega'
p611
sS'unlock_bits'
p612
S'0x3F'
p613
ssS'build'
p614
(dp615
S'core'
p616
S'arduino'
p617
sS'mcu'
p618
S'atmega328p'
p619
sS'f_cpu'
p620
S'8000000L'
p621
sS'variant'
p622
S'eightanaloginputs'
p623
ssS'name'
p624
S'Arduino Fio'
p625
sS'upload'
p626
(dp627
S'speed'
p628
S'57600'
p629
sS'maximum_size'
p630
S'30720'
p631
sS'protocol'
p632
S'arduino'
p633
ssaa(lp634
S'bt328'
p635
a(dp636
S'bootloader'
p637
(dp638
S'extended_fuses'
p639
S'0x05'
p640
sS'high_fuses'
p641
S'0xd8'
p642
sS'low_fuses'
p643
S'0xff'
p644
sS'lock_bits'
p645
S'0x0F'
p646
sS'file'
p647
S'ATmegaBOOT_168_atmega328_bt.hex'
p648
sS'path'
p649
S'bt'
p650
sS'unlock_bits'
p651
S'0x3F'
p652
ssS'build'
p653
(dp654
S'core'
p655
S'arduino'
p656
sS'mcu'
p657
S'atmega328p'
p658
sS'f_cpu'
p659
S'16000000L'
p660
sS'variant'
p661
S'eightanaloginputs'
p662
ssS'name'
p663
S'Arduino BT w/ ATmega328'
p664
sS'upload'
p665
(dp666
S'speed'
p667
S'19200'
p668
sS'maximum_size'
p669
S'28672'
p670
sS'protocol'
p671
S'arduino'
p672
sS'disable_flushing'
p673
S'true'
p674
ssaa(lp675
S'bt'
p676
a(dp677
S'bootloader'
p678
(dp679
S'extended_fuses'
p680
S'0x00'
p681
sS'high_fuses'
p682
S'0xdd'
p683
sS'low_fuses'
p684
S'0xff'
p685
sS'lock_bits'
p686
S'0x0F'
p687
sS'file'
p688
S'ATmegaBOOT_168.hex'
p689
sS'path'
p690
S'bt'
p691
sS'unlock_bits'
p692
S'0x3F'
p693
ssS'build'
p694
(dp695
S'core'
p696
S'arduino'
p697
sS'mcu'
p698
S'atmega168'
p699
sS'f_cpu'
p700
S'16000000L'
p701
sS'variant'
p702
S'eightanaloginputs'
p703
ssS'name'
p704
S'Arduino BT w/ ATmega168'
p705
sS'upload'
p706
(dp707
S'speed'
p708
S'19200'
p709
sS'maximum_size'
p710
S'14336'
p711
sS'protocol'
p712
S'arduino'
p713
sS'disable_flushing'
p714
S'true'
p715
ssaa(lp716
S'LilyPadUSB'
p717
a(dp718
S'bootloader'
p719
(dp720
S'extended_fuses'
p721
S'0xce'
p722
sS'high_fuses'
p723
S'0xd8'
p724
sS'low_fuses'
p725
S'0xff'
p726
sS'lock_bits'
p727
S'0x2F'
p728
sS'file'
p729
S'Caterina-LilyPadUSB.hex'
p730
sS'path'
p731
S'caterina-LilyPadUSB'
p732
sS'unlock_bits'
p733
S'0x3F'
p734
ssS'build'
p735
(dp736
S'core'
p737
S'arduino'
p738
sS'f_cpu'
p739
S'8000000L'
p740
sS'vid'
p741
S'0x1B4F'
p742
sS'pid'
p743
S'0x9208'
p744
sS'variant'
p745
S'leonardo'
p746
sS'mcu'
p747
S'atmega32u4'
p748
ssS'name'
p749
S'LilyPad Arduino USB'
p750
sS'upload'
p751
(dp752
S'speed'
p753
S'57600'
p754
sS'maximum_size'
p755
S'28672'
p756
sS'protocol'
p757
S'avr109'
p758
sS'disable_flushing'
p759
S'true'
p760
ssaa(lp761
S'lilypad328'
p762
a(dp763
S'bootloader'
p764
(dp765
S'extended_fuses'
p766
S'0x05'
p767
sS'high_fuses'
p768
S'0xDA'
p769
sS'low_fuses'
p770
S'0xFF'
p771
sS'lock_bits'
p772
S'0x0F'
p773
sS'file'
p774
S'ATmegaBOOT_168_atmega328_pro_8MHz.hex'
p775
sS'path'
p776
S'atmega'
p777
sS'unlock_bits'
p778
S'0x3F'
p779
ssS'build'
p780
(dp781
S'core'
p782
S'arduino'
p783
sS'mcu'
p784
S'atmega328p'
p785
sS'f_cpu'
p786
S'8000000L'
p787
sS'variant'
p788
S'standard'
p789
ssS'name'
p790
S'LilyPad Arduino w/ ATmega328'
p791
sS'upload'
p792
(dp793
S'speed'
p794
S'57600'
p795
sS'maximum_size'
p796
S'30720'
p797
sS'protocol'
p798
S'arduino'
p799
ssaa(lp800
S'lilypad'
p801
a(dp802
S'bootloader'
p803
(dp804
S'extended_fuses'
p805
S'0x00'
p806
sS'high_fuses'
p807
S'0xdd'
p808
sS'low_fuses'
p809
S'0xe2'
p810
sS'lock_bits'
p811
S'0x0F'
p812
sS'file'
p813
S'LilyPadBOOT_168.hex'
p814
sS'path'
p815
S'lilypad'
p816
sS'unlock_bits'
p817
S'0x3F'
p818
ssS'build'
p819
(dp820
S'core'
p821
S'arduino'
p822
sS'mcu'
p823
S'atmega168'
p824
sS'f_cpu'
p825
S'8000000L'
p826
sS'variant'
p827
S'standard'
p828
ssS'name'
p829
S'LilyPad Arduino w/ ATmega168'
p830
sS'upload'
p831
(dp832
S'speed'
p833
S'19200'
p834
sS'maximum_size'
p835
S'14336'
p836
sS'protocol'
p837
S'arduino'
p838
ssaa(lp839
S'pro5v328'
p840
a(dp841
S'bootloader'
p842
(dp843
S'extended_fuses'
p844
S'0x05'
p845
sS'high_fuses'
p846
S'0xDA'
p847
sS'low_fuses'
p848
S'0xFF'
p849
sS'lock_bits'
p850
S'0x0F'
p851
sS'file'
p852
S'ATmegaBOOT_168_atmega328.hex'
p853
sS'path'
p854
S'atmega'
p855
sS'unlock_bits'
p856
S'0x3F'
p857
ssS'build'
p858
(dp859
S'core'
p860
S'arduino'
p861
sS'mcu'
p862
S'atmega328p'
p863
sS'f_cpu'
p864
S'16000000L'
p865
sS'variant'
p866
S'standard'
p867
ssS'name'
p868
S'Arduino Pro or Pro Mini (5V, 16 MHz) w/ ATmega328'
p869
sS'upload'
p870
(dp871
S'speed'
p872
S'57600'
p873
sS'maximum_size'
p874
S'30720'
p875
sS'protocol'
p876
S'arduino'
p877
ssaa(lp878
S'pro5v'
p879
a(dp880
S'bootloader'
p881
(dp882
S'extended_fuses'
p883
S'0x00'
p884
sS'high_fuses'
p885
S'0xdd'
p886
sS'low_fuses'
p887
S'0xff'
p888
sS'lock_bits'
p889
S'0x0F'
p890
sS'file'
p891
S'ATmegaBOOT_168_diecimila.hex'
p892
sS'path'
p893
S'atmega'
p894
sS'unlock_bits'
p895
S'0x3F'
p896
ssS'build'
p897
(dp898
S'core'
p899
S'arduino'
p900
sS'mcu'
p901
S'atmega168'
p902
sS'f_cpu'
p903
S'16000000L'
p904
sS'variant'
p905
S'standard'
p906
ssS'name'
p907
S'Arduino Pro or Pro Mini (5V, 16 MHz) w/ ATmega168'
p908
sS'upload'
p909
(dp910
S'speed'
p911
S'19200'
p912
sS'maximum_size'
p913
S'14336'
p914
sS'protocol'
p915
S'arduino'
p916
ssaa(lp917
S'pro328'
p918
a(dp919
S'bootloader'
p920
(dp921
S'extended_fuses'
p922
S'0x05'
p923
sS'high_fuses'
p924
S'0xDA'
p925
sS'low_fuses'
p926
S'0xFF'
p927
sS'lock_bits'
p928
S'0x0F'
p929
sS'file'
p930
S'ATmegaBOOT_168_atmega328_pro_8MHz.hex'
p931
sS'path'
p932
S'atmega'
p933
sS'unlock_bits'
p934
S'0x3F'
p935
ssS'build'
p936
(dp937
S'core'
p938
S'arduino'
p939
sS'mcu'
p940
S'atmega328p'
p941
sS'f_cpu'
p942
S'8000000L'
p943
sS'variant'
p944
S'standard'
p945
ssS'name'
p946
S'Arduino Pro or Pro Mini (3.3V, 8 MHz) w/ ATmega328'
p947
sS'upload'
p948
(dp949
S'speed'
p950
S'57600'
p951
sS'maximum_size'
p952
S'30720'
p953
sS'protocol'
p954
S'arduino'
p955
ssaa(lp956
S'pro'
p957
a(dp958
S'bootloader'
p959
(dp960
S'extended_fuses'
p961
S'0x00'
p962
sS'high_fuses'
p963
S'0xdd'
p964
sS'low_fuses'
p965
S'0xc6'
p966
sS'lock_bits'
p967
S'0x0F'
p968
sS'file'
p969
S'ATmegaBOOT_168_pro_8MHz.hex'
p970
sS'path'
p971
S'atmega'
p972
sS'unlock_bits'
p973
S'0x3F'
p974
ssS'build'
p975
(dp976
S'core'
p977
S'arduino'
p978
sS'mcu'
p979
S'atmega168'
p980
sS'f_cpu'
p981
S'8000000L'
p982
sS'variant'
p983
S'standard'
p984
ssS'name'
p985
S'Arduino Pro or Pro Mini (3.3V, 8 MHz) w/ ATmega168'
p986
sS'upload'
p987
(dp988
S'speed'
p989
S'19200'
p990
sS'maximum_size'
p991
S'14336'
p992
sS'protocol'
p993
S'arduino'
p994
ssaa(lp995
S'atmega168'
p996
a(dp997
S'bootloader'
p998
(dp999
S'extended_fuses'
p1000
S'0x00'
p1001
sS'high_fuses'
p1002
S'0xdd'
p1003
sS'low_fuses'
p1004
S'0xff'
p1005
sS'lock_bits'
p1006
S'0x0F'
p1007
sS'file'
p1008
S'ATmegaBOOT_168_ng.hex'
p1009
sS'path'
p1010
S'atmega'
p1011
sS'unlock_bits'
p1012
S'0x3F'
p1013
ssS'build'
p1014
(dp1015
S'core'
p1016
S'arduino'
p1017
sS'mcu'
p1018
S'atmega168'
p1019
sS'f_cpu'
p1020
S'16000000L'
p1021
sS'variant'
p1022
S'standard'
p1023
ssS'name'
p1024
S'Arduino NG or older w/ ATmega168'
p1025
sS'upload'
p1026
(dp1027
S'speed'
p1028
S'19200'
p1029
sS'maximum_size'
p1030
S'14336'
p1031
sS'protocol'
p1032
S'arduino'
p1033
ssaa(lp1034
S'atmega8'
p1035
a(dp1036
S'bootloader'
p1037
(dp1038
S'high_fuses'
p1039
S'0xca'
p1040
sS'low_fuses'
p1041
S'0xdf'
p1042
sS'lock_bits'
p1043
S'0x0F'
p1044
sS'file'
p1045
S'ATmegaBOOT-prod-firmware-2009-11-07.hex'
p1046
sS'path'
p1047
S'atmega8'
p1048
sS'unlock_bits'
p1049
S'0x3F'
p1050
ssS'build'
p1051
(dp1052
S'core'
p1053
S'arduino'
p1054
sS'mcu'
p1055
S'atmega8'
p1056
sS'f_cpu'
p1057
S'16000000L'
p1058
sS'variant'
p1059
S'standard'
p1060
ssS'name'
p1061
S'Arduino NG or older w/ ATmega8'
p1062
sS'upload'
p1063
(dp1064
S'speed'
p1065
S'19200'
p1066
sS'maximum_size'
p1067
S'7168'
p1068
sS'protocol'
p1069
S'arduino'
p1070
ssaa(lp1071
S'robotControl'
p1072
a(dp1073
S'bootloader'
p1074
(dp1075
S'extended_fuses'
p1076
S'0xcb'
p1077
sS'high_fuses'
p1078
S'0xd8'
p1079
sS'low_fuses'
p1080
S'0xff'
p1081
sS'lock_bits'
p1082
S'0x2F'
p1083
sS'file'
p1084
S'Caterina-Robot-Control.hex'
p1085
sS'path'
p1086
S'caterina-Arduino_Robot'
p1087
sS'unlock_bits'
p1088
S'0x3F'
p1089
ssS'build'
p1090
(dp1091
S'core'
p1092
S'robot'
p1093
sS'f_cpu'
p1094
S'16000000L'
p1095
sS'vid'
p1096
S'0x2341'
p1097
sS'pid'
p1098
S'0x8038'
p1099
sS'variant'
p1100
S'robot_control'
p1101
sS'mcu'
p1102
S'atmega32u4'
p1103
ssS'name'
p1104
S'Arduino Robot Control'
p1105
sS'upload'
p1106
(dp1107
S'speed'
p1108
S'57600'
p1109
sS'maximum_size'
p1110
S'28672'
p1111
sS'protocol'
p1112
S'avr109'
p1113
sS'disable_flushing'
p1114
S'true'
p1115
ssaa(lp1116
S'robotMotor'
p1117
a(dp1118
S'bootloader'
p1119
(dp1120
S'extended_fuses'
p1121
S'0xcb'
p1122
sS'high_fuses'
p1123
S'0xd8'
p1124
sS'low_fuses'
p1125
S'0xff'
p1126
sS'lock_bits'
p1127
S'0x2F'
p1128
sS'file'
p1129
S'Caterina-Robot-Motor.hex'
p1130
sS'path'
p1131
S'caterina-Arduino_Robot'
p1132
sS'unlock_bits'
p1133
S'0x3F'
p1134
ssS'build'
p1135
(dp1136
S'core'
p1137
S'robot'
p1138
sS'f_cpu'
p1139
S'16000000L'
p1140
sS'vid'
p1141
S'0x2341'
p1142
sS'pid'
p1143
S'0x8039'
p1144
sS'variant'
p1145
S'robot_motor'
p1146
sS'mcu'
p1147
S'atmega32u4'
p1148
ssS'name'
p1149
S'Arduino Robot Motor'
p1150
sS'upload'
p1151
(dp1152
S'speed'
p1153
S'57600'
p1154
sS'maximum_size'
p1155
S'28672'
p1156
sS'protocol'
p1157
S'avr109'
p1158
sS'disable_flushing'
p1159
S'true'
p1160
ssaatp1161
Rp1162
(dp1163
S'default'
p1164
S'uno'
p1165
sbtp1166
a(S'used_libs'
p1167
(lp1168
S'lib/EBXLib'
p1169
aS'/Applications/Arduino.app/Contents/Resources/Java/libraries/EEPROM'
p1170
aS'lib/EEPROMAnything'
p1171
aS'/Applications/Arduino.app/Contents/Resources/Java/libraries/LiquidCrystal'
p1172
aS'lib/DallasTemperature'
p1173
aS'lib/OneWire'
p1174
aS'/Applications/Arduino.app/Contents/Resources/Java/hardware/arduino/cores/arduino'
p1175
atp1176
a(S'make'
p1177
S'/Applications/Arduino.app/Contents/Resources/Java/hardware/tools/avr/bin/make'
p1178
tp1179
a(S'build_dir'
p1180
S'.build/uno'
p1181
tp1182
a(S'cxx'
p1183
S'/Applications/Arduino.app/Contents/Resources/Java/hardware/tools/avr/bin/avr-g++'
p1184
tp1185
a(S'cflags'
p1186
g2
(g3
g4
(lp1187
tp1188
Rp1189
tp1190
a(S'cxxflags'
p1191
g2
(g3
g4
(lp1192
S'-fno-exceptions'
p1193
atp1194
Rp1195
tp1196
a(S'arduino_variants_dir'
p1197
S'/Applications/Arduino.app/Contents/Resources/Java/hardware/arduino/variants'
p1198
tp1199
a(S'serial'
p1200
S'/usr/local/bin/picocom'
p1201
tp1202
a(S'stty'
p1203
S'/bin/stty'
p1204
tp1205
a(S'version.txt'
p1206
S'/Applications/Arduino.app/Contents/Resources/Java/lib/version.txt'
p1207
tp1208
a(S'arduino_core_dir'
p1209
g1175
tp1210
a(S'boards.txt'
p1211
S'/Applications/Arduino.app/Contents/Resources/Java/hardware/arduino/boards.txt'
p1212
tp1213
a(S'avrdude.conf'
p1214
S'/Applications/Arduino.app/Contents/Resources/Java/hardware/tools/avr/etc/avrdude.conf'
p1215
tp1216
a(S'deps'
p1217
g2
(g3
g4
(lp1218
S'.build/uno/src/dependencies.d'
p1219
aS'.build/uno/arduino/dependencies.d'
p1220
aS'.build/uno/EEPROM/dependencies.d'
p1221
aS'.build/uno/EEPROMAnything/dependencies.d'
p1222
aS'.build/uno/EBXLib/dependencies.d'
p1223
aS'.build/uno/LiquidCrystal/dependencies.d'
p1224
aS'.build/uno/DallasTemperature/dependencies.d'
p1225
aS'.build/uno/OneWire/dependencies.d'
p1226
atp1227
Rp1228
tp1229
a.